; Function Attrs: mustprogress nofree norecurse nounwind willreturn memory(argmem: readwrite) uwtable
define void @_ZN32pxrInternal_v0_24__pxrReserved__8SdfLayer21_FinishInitializationEb(ptr noundef nonnull writeonly align 8 captures(none) dereferenceable(557) initializes((505, 507)) %0, i1 noundef zeroext %1) local_unnamed_addr #13 align 2 personality ptr @__gxx_personality_v0 {
  %3 = getelementptr inbounds nuw i8, ptr %0, i64 505
  %.sroa.0.0.insert.ext = zext i1 %1 to i16
  %.sroa.0.0.insert.insert = or disjoint i16 %.sroa.0.0.insert.ext, 256
  store i16 %.sroa.0.0.insert.insert, ptr %3, align 1
  %4 = getelementptr inbounds nuw i8, ptr %0, i64 504
  store atomic i8 1, ptr %4 seq_cst, align 8
  ret void
}